target datalayout = "e-m:e-p270:32:32-p271:32:32-p272:64:64-i64:64-i128:128-f80:128-n8:16:32:64-S128"
target triple = "x86_64-pc-linux-gnu"

%struct.AVChannelLayout = type { i32, i32, %union.anon.0, ptr }
%union.anon.0 = type { i64 }
%struct.AVCodecContext = type { ptr, i32, i32, ptr, i32, i32, ptr, ptr, ptr, i64, i32, i32, ptr, i32, %struct.AVRational, %struct.AVRational, %struct.AVRational, i32, i32, i32, i32, i32, %struct.AVRational, i32, i32, i32, i32, i32, i32, i32, i32, i32, i32, i32, ptr, ptr, i32, float, float, float, float, float, float, float, float, float, i32, i32, i32, i32, i32, i32, i32, i32, i32, i32, i32, i32, ptr, ptr, ptr, i32, i32, i32, i32, i32, i32, i32, i32, i32, i32, %struct.AVChannelLayout, i32, i32, i32, i32, i32, i32, i32, i32, ptr, i32, i32, i32, float, float, i32, i32, i32, i32, i32, ptr, i64, i64, float, float, i32, i32, ptr, ptr, i32, i32, i32, i32, i32, ptr, ptr, ptr, ptr, i32, i32, [8 x i64], i32, i32, i32, i32, i32, i32, i32, ptr, ptr, i32, i32, i32, i32, i32, i32, i32, i32, i32, i32, ptr, ptr, i32, i32, ptr, ptr, ptr, ptr, i32, i32, i64, i32, i32, i64, ptr, i64, ptr, i32, ptr, i32 }
%struct.AVRational = type { i32, i32 }
%struct.QDMCContext = type { ptr, i8, i32, i32, i32, i32, i32, i32, i32, [2 x [19 x [17 x i8]]], [5 x [8192 x %struct.QDMCTone]], [5 x i32], [5 x i32], [5 x [31 x float]], [4 x [16384 x float]], [8192 x float], [8192 x float], [65536 x float], ptr, i32, [12 x i8], [2 x [512 x %struct.AVComplexFloat]], [2 x [512 x %struct.AVComplexFloat]], ptr, ptr }
%struct.QDMCTone = type { i8, i8, i8, i16, i16 }
%struct.AVComplexFloat = type { float, float }

; Function Attrs: cold nounwind optsize uwtable
define internal void @qdmc_flush(ptr noundef %0) #0 {
  %2 = alloca ptr, align 8
  %3 = alloca ptr, align 8
  store ptr %0, ptr %2, align 8, !tbaa !4
  call void @llvm.lifetime.start.p0(i64 8, ptr %3) #12
  %4 = load ptr, ptr %2, align 8, !tbaa !4
  %5 = getelementptr inbounds nuw %struct.AVCodecContext, ptr %4, i32 0, i32 6
  %6 = load ptr, ptr %5, align 8, !tbaa !9
  store ptr %6, ptr %3, align 8, !tbaa !29
  %7 = load ptr, ptr %3, align 8, !tbaa !29
  %8 = getelementptr inbounds nuw %struct.QDMCContext, ptr %7, i32 0, i32 17
  %9 = getelementptr inbounds [65536 x float], ptr %8, i64 0, i64 0
  call void @llvm.memset.p0.i64(ptr align 4 %9, i8 0, i64 262144, i1 false)
  %10 = load ptr, ptr %3, align 8, !tbaa !29
  %11 = getelementptr inbounds nuw %struct.QDMCContext, ptr %10, i32 0, i32 14
  %12 = getelementptr inbounds [4 x [16384 x float]], ptr %11, i64 0, i64 0
  call void @llvm.memset.p0.i64(ptr align 4 %12, i8 0, i64 262144, i1 false)
  %13 = load ptr, ptr %3, align 8, !tbaa !29
  %14 = getelementptr inbounds nuw %struct.QDMCContext, ptr %13, i32 0, i32 5
  store i32 0, ptr %14, align 8, !tbaa !73
  %15 = load ptr, ptr %3, align 8, !tbaa !29
  %16 = getelementptr inbounds nuw %struct.QDMCContext, ptr %15, i32 0, i32 6
  store i32 0, ptr %16, align 4, !tbaa !74
  call void @llvm.lifetime.end.p0(i64 8, ptr %3) #12
  ret void
}