; Function Attrs: cold mustprogress nofree norecurse nosync nounwind optsize willreturn memory(write, argmem: readwrite, inaccessiblemem: none) uwtable
define internal void @qdmc_flush(ptr noundef readonly captures(none) %0) #2 {
  %2 = getelementptr inbounds nuw i8, ptr %0, i64 32
  %3 = load ptr, ptr %2, align 8, !tbaa !4
  %4 = getelementptr inbounds nuw i8, ptr %3, i64 656708
  tail call void @llvm.memset.p0.i64(ptr noundef nonnull align 4 dereferenceable(262144) %4, i8 0, i64 262144, i1 false)
  %5 = getelementptr inbounds nuw i8, ptr %3, i64 329028
  tail call void @llvm.memset.p0.i64(ptr noundef nonnull align 4 dereferenceable(262144) %5, i8 0, i64 262144, i1 false)
  %6 = getelementptr inbounds nuw i8, ptr %3, i64 24
  store i32 0, ptr %6, align 8, !tbaa !67
  %7 = getelementptr inbounds nuw i8, ptr %3, i64 28
  store i32 0, ptr %7, align 4, !tbaa !68
  ret void
}